target datalayout = "e-m:e-p270:32:32-p271:32:32-p272:64:64-i64:64-i128:128-f80:128-n8:16:32:64-S128"
target triple = "x86_64-pc-linux-gnu"

%struct.WOLFSSL = type <{ ptr, ptr, ptr, ptr, [48 x i8], [48 x i8], ptr, ptr, ptr, ptr, ptr, ptr, ptr, ptr, ptr, ptr, ptr, ptr, ptr, i32, [4 x i8], %struct.WOLFSSL_CIPHER, ptr, %struct.Ciphers, %struct.Ciphers, [8 x i8], %struct.Buffers, ptr, ptr, %struct.WOLFSSL_ALERT_HISTORY, %struct.WOLFSSL_ALERT, i32, i32, i32, i32, i32, i32, i32, i16, [2 x i8], i32, i8, %struct.RecordLayerHeader, %struct.MsgsReceived, %struct.ProtocolVersion, %struct.ProtocolVersion, %struct.CipherSpecs, [2 x i8], %struct.Keys, %struct.Options, ptr, i8, i8, i16, [10 x i16], i8, i8, i16, i16, [38 x i8], i32, i32, [4 x i8], ptr, i8, i8, [6 x i8], ptr, ptr, i16, i8, i8, i32, i8, [3 x i8], i32, %struct.OneTimeAuth, ptr }>
%struct.WOLFSSL_CIPHER = type { i8, i8, ptr }
%struct.Ciphers = type { ptr, ptr, ptr, ptr, i8, i8 }
%struct.Buffers = type { %struct.bufferStatic, %struct.bufferStatic, %struct.WOLFSSL_BUFFER_INFO, %struct.WOLFSSL_BUFFER_INFO, %struct.WOLFSSL_BUFFER_INFO, %struct.WOLFSSL_BUFFER_INFO, i32, i32, i8, i8, i8, i8, %struct.WOLFSSL_BUFFER_INFO, %struct.WOLFSSL_BUFFER_INFO, %struct.WOLFSSL_BUFFER_INFO, %struct.WOLFSSL_BUFFER_INFO, ptr, ptr, ptr, i8, i8, i32, i32, ptr, i32, [1 x ptr] }
%struct.bufferStatic = type { [5 x i8], ptr, i32, i32, i32, i8, i8 }
%struct.WOLFSSL_BUFFER_INFO = type { ptr, i32 }
%struct.WOLFSSL_ALERT_HISTORY = type { %struct.WOLFSSL_ALERT, %struct.WOLFSSL_ALERT }
%struct.WOLFSSL_ALERT = type { i32, i32 }
%struct.RecordLayerHeader = type { i8, i8, i8, [2 x i8] }
%struct.MsgsReceived = type { i32 }
%struct.ProtocolVersion = type { i8, i8 }
%struct.CipherSpecs = type { i16, i16, i16, i16, i8, i8, i8, i8, i8, i8, i8, i8 }
%struct.Keys = type { [64 x i8], [64 x i8], [32 x i8], [32 x i8], [16 x i8], [16 x i8], [8 x i8], [12 x i8], [12 x i8], i32, i32, i32, i32, i32, i32, i8, i8, i8, i8 }
%struct.Options = type { i64, i64, i8, i8, i8, i8, i8, i8, i8, i8, i8, i8, i8, i8, i8, i8, i8, i8, i8, i8, i8, i8, i8, i16, i16, i16, i16, i16, i8 }
%struct.OneTimeAuth = type { ptr, i8 }
%struct.Arrays = type { ptr, ptr, i32, i32, i32, [32 x i8], [32 x i8], [32 x i8], i8, [48 x i8], [48 x i8], i8 }

@derivedLabel = internal constant [8 x i8] c"derived\00", align 1

; Function Attrs: nounwind uwtable
define internal i32 @Tls13_HKDF_Extract(ptr noundef %0, ptr noundef %1, ptr noundef %2, i32 noundef %3, ptr noundef %4, i32 noundef %5, i32 noundef %6) #0 {
  %8 = alloca ptr, align 8
  %9 = alloca ptr, align 8
  %10 = alloca ptr, align 8
  %11 = alloca i32, align 4
  %12 = alloca ptr, align 8
  %13 = alloca i32, align 4
  %14 = alloca i32, align 4
  %15 = alloca i32, align 4
  store ptr %0, ptr %8, align 8, !tbaa !3
  store ptr %1, ptr %9, align 8, !tbaa !8
  store ptr %2, ptr %10, align 8, !tbaa !8
  store i32 %3, ptr %11, align 4, !tbaa !10
  store ptr %4, ptr %12, align 8, !tbaa !8
  store i32 %5, ptr %13, align 4, !tbaa !10
  store i32 %6, ptr %14, align 4, !tbaa !10
  call void @llvm.lifetime.start.p0(i64 4, ptr %15) #8
  %16 = load ptr, ptr %9, align 8, !tbaa !8
  %17 = load ptr, ptr %10, align 8, !tbaa !8
  %18 = load i32, ptr %11, align 4, !tbaa !10
  %19 = load ptr, ptr %12, align 8, !tbaa !8
  %20 = load i32, ptr %13, align 4, !tbaa !10
  %21 = load i32, ptr %14, align 4, !tbaa !10
  %22 = load ptr, ptr %8, align 8, !tbaa !3
  %23 = getelementptr inbounds nuw %struct.WOLFSSL, ptr %22, i32 0, i32 12
  %24 = load ptr, ptr %23, align 16, !tbaa !46
  %25 = load ptr, ptr %8, align 8, !tbaa !3
  %26 = getelementptr inbounds nuw %struct.WOLFSSL, ptr %25, i32 0, i32 75
  %27 = load i32, ptr %26, align 4, !tbaa !47
  %28 = call i32 @wc_Tls13_HKDF_Extract_ex(ptr noundef %16, ptr noundef %17, i32 noundef %18, ptr noundef %19, i32 noundef %20, i32 noundef %21, ptr noundef %24, i32 noundef %27)
  store i32 %28, ptr %15, align 4, !tbaa !10
  %29 = load i32, ptr %15, align 4, !tbaa !10
  call void @llvm.lifetime.end.p0(i64 4, ptr %15) #8
  ret i32 %29
}

; Function Attrs: inlinehint nounwind uwtable
define internal i32 @mac2hash(i32 noundef %0) #4 {
  %2 = alloca i32, align 4
  %3 = alloca i32, align 4
  store i32 %0, ptr %2, align 4, !tbaa !10
  call void @llvm.lifetime.start.p0(i64 4, ptr %3) #8
  %4 = load i32, ptr %2, align 4, !tbaa !10
  switch i32 %4, label %7 [
    i32 4, label %5
    i32 5, label %6
  ]

5:                                                ; preds = %1
  store i32 6, ptr %3, align 4, !tbaa !10
  br label %8

6:                                                ; preds = %1
  store i32 7, ptr %3, align 4, !tbaa !10
  br label %8

7:                                                ; preds = %1
  store i32 0, ptr %3, align 4, !tbaa !10
  br label %8

8:                                                ; preds = %7, %6, %5
  %9 = load i32, ptr %3, align 4, !tbaa !10
  call void @llvm.lifetime.end.p0(i64 4, ptr %3) #8
  ret i32 %9
}

; Function Attrs: nounwind uwtable
define i32 @DeriveMasterSecret(ptr noundef %0) #0 {
  %2 = alloca i32, align 4
  %3 = alloca ptr, align 8
  %4 = alloca [64 x i8], align 16
  %5 = alloca i32, align 4
  %6 = alloca i32, align 4
  store ptr %0, ptr %3, align 8, !tbaa !3
  call void @llvm.lifetime.start.p0(i64 64, ptr %4) #8
  call void @llvm.lifetime.start.p0(i64 4, ptr %5) #8
  br label %7

7:                                                ; preds = %1
  br label %8

8:                                                ; preds = %7
  br label %9

9:                                                ; preds = %8
  %10 = load ptr, ptr %3, align 8, !tbaa !3
  %11 = icmp eq ptr %10, null
  br i1 %11, label %17, label %12

12:                                               ; preds = %9
  %13 = load ptr, ptr %3, align 8, !tbaa !3
  %14 = getelementptr inbounds nuw %struct.WOLFSSL, ptr %13, i32 0, i32 3
  %15 = load ptr, ptr %14, align 8, !tbaa !48
  %16 = icmp eq ptr %15, null
  br i1 %16, label %17, label %18

17:                                               ; preds = %12, %9
  store i32 -173, ptr %2, align 4
  store i32 1, ptr %6, align 4
  br label %68

18:                                               ; preds = %12
  %19 = load ptr, ptr %3, align 8, !tbaa !3
  %20 = getelementptr inbounds [64 x i8], ptr %4, i64 0, i64 0
  %21 = load ptr, ptr %3, align 8, !tbaa !3
  %22 = getelementptr inbounds nuw %struct.WOLFSSL, ptr %21, i32 0, i32 3
  %23 = load ptr, ptr %22, align 8, !tbaa !48
  %24 = getelementptr inbounds nuw %struct.Arrays, ptr %23, i32 0, i32 1
  %25 = load ptr, ptr %24, align 8, !tbaa !50
  %26 = load ptr, ptr %3, align 8, !tbaa !3
  %27 = getelementptr inbounds nuw %struct.WOLFSSL, ptr %26, i32 0, i32 46
  %28 = getelementptr inbounds nuw %struct.CipherSpecs, ptr %27, i32 0, i32 6
  %29 = load i8, ptr %28, align 2, !tbaa !49
  %30 = zext i8 %29 to i32
  %31 = call i32 @DeriveKeyMsg(ptr noundef %19, ptr noundef %20, i32 noundef -1, ptr noundef %25, ptr noundef @derivedLabel, i32 noundef 7, ptr noundef null, i32 noundef 0, i32 noundef %30)
  store i32 %31, ptr %5, align 4, !tbaa !10
  %32 = load i32, ptr %5, align 4, !tbaa !10
  %33 = icmp ne i32 %32, 0
  br i1 %33, label %34, label %36

34:                                               ; preds = %18
  %35 = load i32, ptr %5, align 4, !tbaa !10
  store i32 %35, ptr %2, align 4
  store i32 1, ptr %6, align 4
  br label %68

36:                                               ; preds = %18
  br label %37

37:                                               ; preds = %36
  br label %38

38:                                               ; preds = %37
  br label %39

39:                                               ; preds = %38
  %40 = load ptr, ptr %3, align 8, !tbaa !3
  %41 = load ptr, ptr %3, align 8, !tbaa !3
  %42 = getelementptr inbounds nuw %struct.WOLFSSL, ptr %41, i32 0, i32 3
  %43 = load ptr, ptr %42, align 8, !tbaa !48
  %44 = getelementptr inbounds nuw %struct.Arrays, ptr %43, i32 0, i32 10
  %45 = getelementptr inbounds [48 x i8], ptr %44, i64 0, i64 0
  %46 = getelementptr inbounds [64 x i8], ptr %4, i64 0, i64 0
  %47 = load ptr, ptr %3, align 8, !tbaa !3
  %48 = getelementptr inbounds nuw %struct.WOLFSSL, ptr %47, i32 0, i32 46
  %49 = getelementptr inbounds nuw %struct.CipherSpecs, ptr %48, i32 0, i32 9
  %50 = load i8, ptr %49, align 1, !tbaa !52
  %51 = zext i8 %50 to i32
  %52 = load ptr, ptr %3, align 8, !tbaa !3
  %53 = getelementptr inbounds nuw %struct.WOLFSSL, ptr %52, i32 0, i32 3
  %54 = load ptr, ptr %53, align 8, !tbaa !48
  %55 = getelementptr inbounds nuw %struct.Arrays, ptr %54, i32 0, i32 10
  %56 = getelementptr inbounds [48 x i8], ptr %55, i64 0, i64 0
  %57 = load ptr, ptr %3, align 8, !tbaa !3
  %58 = getelementptr inbounds nuw %struct.WOLFSSL, ptr %57, i32 0, i32 46
  %59 = getelementptr inbounds nuw %struct.CipherSpecs, ptr %58, i32 0, i32 6
  %60 = load i8, ptr %59, align 2, !tbaa !49
  %61 = zext i8 %60 to i32
  %62 = call i32 @mac2hash(i32 noundef %61)
  %63 = call i32 @Tls13_HKDF_Extract(ptr noundef %40, ptr noundef %45, ptr noundef %46, i32 noundef %51, ptr noundef %56, i32 noundef 0, i32 noundef %62)
  store i32 %63, ptr %5, align 4, !tbaa !10
  br label %64

64:                                               ; preds = %39
  br label %65

65:                                               ; preds = %64
  br label %66

66:                                               ; preds = %65
  %67 = load i32, ptr %5, align 4, !tbaa !10
  store i32 %67, ptr %2, align 4
  store i32 1, ptr %6, align 4
  br label %68

68:                                               ; preds = %66, %34, %17
  call void @llvm.lifetime.end.p0(i64 4, ptr %5) #8
  call void @llvm.lifetime.end.p0(i64 64, ptr %4) #8
  %69 = load i32, ptr %2, align 4
  ret i32 %69
}