; Function Attrs: nounwind uwtable
define i32 @DeriveMasterSecret(ptr noundef readonly captures(address_is_null) %0) local_unnamed_addr #0 {
  %2 = alloca [64 x i8], align 16
  call void @llvm.lifetime.start.p0(i64 64, ptr nonnull %2) #11
  %3 = icmp eq ptr %0, null
  br i1 %3, label %25, label %4

4:                                                ; preds = %1
  %5 = getelementptr inbounds nuw i8, ptr %0, i64 24
  %6 = load ptr, ptr %5, align 8, !tbaa !45
  %7 = icmp eq ptr %6, null
  br i1 %7, label %25, label %8

8:                                                ; preds = %4
  %9 = getelementptr inbounds nuw i8, ptr %6, i64 8
  %10 = load ptr, ptr %9, align 8, !tbaa !47
  %11 = getelementptr inbounds nuw i8, ptr %0, i64 724
  %12 = load i8, ptr %11, align 2, !tbaa !46
  %13 = zext i8 %12 to i32
  %14 = call fastcc i32 @DeriveKeyMsg(ptr noundef %0, ptr noundef %2, ptr noundef %10, i32 noundef %13)
  %.not = icmp eq i32 %14, 0
  br i1 %.not, label %15, label %25

15:                                               ; preds = %8
  %16 = load ptr, ptr %5, align 8, !tbaa !45
  %17 = getelementptr inbounds nuw i8, ptr %16, i64 173
  %18 = getelementptr inbounds nuw i8, ptr %0, i64 727
  %19 = load i8, ptr %18, align 1, !tbaa !49
  %20 = zext i8 %19 to i32
  %21 = load i8, ptr %11, align 2, !tbaa !46
  %switch.selectcmp.i = icmp eq i8 %21, 5
  %switch.select.i = select i1 %switch.selectcmp.i, i32 7, i32 0
  %switch.selectcmp2.i = icmp eq i8 %21, 4
  %switch.select3.i = select i1 %switch.selectcmp2.i, i32 6, i32 %switch.select.i
  %22 = getelementptr i8, ptr %0, i64 176
  %.val = load ptr, ptr %22, align 16, !tbaa !43
  %23 = getelementptr i8, ptr %0, i64 1204
  %.val16 = load i32, ptr %23, align 4, !tbaa !44
  %24 = call i32 @wc_Tls13_HKDF_Extract_ex(ptr noundef nonnull %17, ptr noundef nonnull %2, i32 noundef range(i32 0, 256) %20, ptr noundef nonnull %17, i32 noundef 0, i32 noundef range(i32 0, 8) %switch.select3.i, ptr noundef %.val, i32 noundef %.val16) #11
  br label %25

25:                                               ; preds = %8, %1, %4, %15
  %.0 = phi i32 [ %24, %15 ], [ -173, %4 ], [ -173, %1 ], [ %14, %8 ]
  call void @llvm.lifetime.end.p0(i64 64, ptr nonnull %2) #11
  ret i32 %.0
}